Certificate:
    Data:
        Version: 3 (0x2)
        Serial Number:
            c7:57:70:aa:a5:19:66:e6:0f:55:d6:12:ab:12:ac:cf
        Signature Algorithm: sha256WithRSAEncryption
        Issuer: CN=vpnserver
        Validity
            Not Before: May 12 17:19:58 2023 GMT
            Not After : Apr 26 17:19:58 2026 GMT
        Subject: CN=vpnserver
        Subject Public Key Info:
            Public Key Algorithm: rsaEncryption
                RSA Public-Key: (2048 bit)
                Modulus:
                    00:ef:27:41:0c:1a:55:66:11:48:75:a6:62:18:f4:
                    d9:26:08:bf:35:67:f0:43:68:1f:4a:05:67:3c:b5:
                    8e:87:21:40:5e:aa:92:5b:5f:b8:b8:21:31:63:bc:
                    a5:f7:f6:41:11:20:76:a5:13:78:cf:68:6e:10:73:
                    16:56:99:ea:fd:e1:05:60:09:3f:e1:b4:ea:49:51:
                    46:79:ce:64:77:fa:16:98:10:6a:e8:40:ab:ed:2a:
                    19:25:34:95:a8:3d:d1:89:bc:cc:3e:f3:75:48:d2:
                    73:bb:2f:3c:a8:94:ca:1f:07:68:51:76:8b:ad:88:
                    fe:f2:b6:37:82:43:bf:d6:e5:06:f3:e7:4a:04:58:
                    41:9b:2c:1f:15:6a:53:93:6e:c1:94:1f:53:1c:11:
                    3a:cb:38:61:a7:70:28:23:1d:b3:8c:85:57:5f:8d:
                    31:f1:bf:25:d0:9b:a3:f5:1e:40:e5:2e:16:2d:ee:
                    21:0e:7a:fd:90:94:18:74:7f:7b:f2:aa:8f:18:68:
                    9e:5f:7d:17:19:76:8e:c7:a7:d1:77:c5:0f:96:4f:
                    61:55:4b:51:83:f4:51:1e:02:70:00:5c:b0:4b:53:
                    75:81:47:78:54:cc:12:6d:f2:92:93:38:3e:2a:9a:
                    3f:bd:66:40:30:cf:40:53:32:a2:74:36:c2:cf:a4:
                    2c:1b
                Exponent: 65537 (0x10001)
        X509v3 extensions:
            X509v3 Basic Constraints: 
                CA:FALSE
            X509v3 Subject Key Identifier: 
                DF:7F:DF:22:17:94:AE:BE:F4:2A:86:6F:CD:3B:7D:25:A1:F1:EC:5B
            X509v3 Authority Key Identifier: 
                keyid:D8:72:77:B8:E6:BF:5D:04:E3:2A:09:44:E4:0C:E1:9A:49:25:0E:B6
                DirName:/CN=vpnserver
                serial:2F:BB:33:A9:B8:A8:5B:79:05:CB:10:F7:88:56:49:44:9D:9D:83:01

            X509v3 Extended Key Usage: 
                TLS Web Server Authentication
            X509v3 Key Usage: 
                Digital Signature, Key Encipherment
            X509v3 Subject Alternative Name: 
                DNS:vpnserver
    Signature Algorithm: sha256WithRSAEncryption
         14:ca:1e:09:b9:c9:1e:d2:a7:a6:5d:5e:1d:1d:25:14:78:1a:
         df:ae:7a:55:8d:9b:0f:97:f1:cc:99:63:aa:2c:ed:54:ac:ae:
         3d:cc:c0:bc:9d:b7:10:8b:65:64:cf:06:bb:7f:0f:0b:dc:b9:
         97:79:c2:0c:79:1f:38:20:19:53:92:36:d9:f2:d2:a6:5d:21:
         18:0f:f3:f9:3a:d2:bc:bf:8a:48:ea:07:e5:8d:2c:26:c4:2c:
         9f:00:34:6d:78:2e:4b:11:32:01:89:78:f1:8b:8d:37:15:11:
         2a:00:e2:b5:bd:3c:11:18:7b:c7:b6:0f:c6:e8:ec:77:1a:72:
         9e:74:45:79:5e:c3:9a:54:fa:90:b3:5e:93:d1:b2:ff:f5:39:
         66:64:27:fc:4c:6c:90:09:1a:32:54:ef:71:f3:45:13:fa:b2:
         22:a8:21:c8:93:01:6d:00:0f:0c:d2:9a:6e:84:76:ed:47:9e:
         fc:b9:d9:ff:6a:a2:7c:44:11:a9:82:c7:3f:9c:ff:a3:3c:f9:
         44:49:d7:65:ae:ea:9f:b8:d2:4b:8b:03:9d:ca:01:59:14:d7:
         13:11:bd:ab:2d:d8:b3:0e:72:11:02:b6:b4:2f:e3:c9:b2:dd:
         02:6b:30:db:ce:12:61:38:9a:22:4d:28:84:e1:d0:12:3b:8a:
         c5:46:55:e0
-----BEGIN CERTIFICATE-----
MIIDajCCAlKgAwIBAgIRAMdXcKqlGWbmD1XWEqsSrM8wDQYJKoZIhvcNAQELBQAw
FDESMBAGA1UEAwwJdnBuc2VydmVyMB4XDTIzMDUxMjE3MTk1OFoXDTI2MDQyNjE3
MTk1OFowFDESMBAGA1UEAwwJdnBuc2VydmVyMIIBIjANBgkqhkiG9w0BAQEFAAOC
AQ8AMIIBCgKCAQEA7ydBDBpVZhFIdaZiGPTZJgi/NWfwQ2gfSgVnPLWOhyFAXqqS
W1+4uCExY7yl9/ZBESB2pRN4z2huEHMWVpnq/eEFYAk/4bTqSVFGec5kd/oWmBBq
6ECr7SoZJTSVqD3RibzMPvN1SNJzuy88qJTKHwdoUXaLrYj+8rY3gkO/1uUG8+dK
BFhBmywfFWpTk27BlB9THBE6yzhhp3AoIx2zjIVXX40x8b8l0Juj9R5A5S4WLe4h
Dnr9kJQYdH978qqPGGieX30XGXaOx6fRd8UPlk9hVUtRg/RRHgJwAFywS1N1gUd4
VMwSbfKSkzg+Kpo/vWZAMM9AUzKidDbCz6QsGwIDAQABo4G2MIGzMAkGA1UdEwQC
MAAwHQYDVR0OBBYEFN9/3yIXlK6+9CqGb807fSWh8exbME8GA1UdIwRIMEaAFNhy
d7jmv10E4yoJROQM4ZpJJQ62oRikFjAUMRIwEAYDVQQDDAl2cG5zZXJ2ZXKCFC+7
M6m4qFt5BcsQ94hWSUSdnYMBMBMGA1UdJQQMMAoGCCsGAQUFBwMBMAsGA1UdDwQE
AwIFoDAUBgNVHREEDTALggl2cG5zZXJ2ZXIwDQYJKoZIhvcNAQELBQADggEBABTK
Hgm5yR7Sp6ZdXh0dJRR4Gt+uelWNmw+X8cyZY6os7VSsrj3MwLydtxCLZWTPBrt/
DwvcuZd5wgx5HzggGVOSNtny0qZdIRgP8/k60ry/ikjqB+WNLCbELJ8ANG14LksR
MgGJePGLjTcVESoA4rW9PBEYe8e2D8bo7Hcacp50RXlew5pU+pCzXpPRsv/1OWZk
J/xMbJAJGjJU73HzRRP6siKoIciTAW0ADwzSmm6Edu1Hnvy52f9qonxEEamCxz+c
/6M8+URJ12Wu6p+40kuLA53KAVkU1xMRvast2LMOchECtrQv48my3QJrMNvOEmE4
miJNKITh0BI7isVGVeA=
-----END CERTIFICATE-----
