Certificate:
    Data:
        Version: 3 (0x2)
        Serial Number:
            2d:46:ea:50:39:77:28:e8:9e:3a:f7:e6:d1:f8:a7:41
        Signature Algorithm: sha256WithRSAEncryption
        Issuer: CN=vpnserver
        Validity
            Not Before: May 12 17:49:07 2023 GMT
            Not After : Apr 26 17:49:07 2026 GMT
        Subject: CN=vpnclient
        Subject Public Key Info:
            Public Key Algorithm: rsaEncryption
                RSA Public-Key: (2048 bit)
                Modulus:
                    00:c2:6a:7e:27:34:e6:c1:6c:73:83:4d:e2:3e:e6:
                    49:1c:97:6e:10:3a:7b:50:11:3e:43:16:65:52:aa:
                    33:64:14:87:9f:dd:d5:d3:f3:cc:ab:48:0e:7c:29:
                    6d:a5:a7:fa:a5:8f:6c:c6:33:56:41:7f:1c:c6:80:
                    e2:dd:df:44:80:0b:2b:81:4c:05:99:79:d0:bd:a0:
                    30:0b:37:5c:64:88:3f:ea:74:e6:9b:52:93:0c:af:
                    f4:59:ca:ec:60:e2:da:7b:68:62:61:a9:a2:bb:a2:
                    39:6f:d7:1d:70:9b:83:43:54:6d:95:4e:9b:32:c9:
                    38:a9:a6:20:06:9c:b1:45:b4:fa:b4:ae:7a:2e:14:
                    15:5a:bc:32:ba:d6:1f:c2:1e:5c:15:c5:67:7d:1d:
                    1b:7c:20:6d:54:9c:95:5a:f2:b2:f2:17:c4:7e:8a:
                    ec:53:33:85:95:ce:20:9a:5b:10:27:98:3b:02:b9:
                    cc:b5:58:ae:72:62:9c:d5:34:a2:e8:47:c7:0d:92:
                    ad:24:28:1c:87:42:17:73:5e:71:2c:a3:a4:ed:78:
                    92:c4:cf:8d:77:c8:41:e2:31:3e:f9:d8:cb:99:fc:
                    f3:a8:52:da:51:e1:ba:c7:59:ca:e0:a6:88:01:56:
                    21:71:61:d7:22:3b:a5:74:3b:4b:2a:8a:3e:59:c4:
                    cb:5f
                Exponent: 65537 (0x10001)
        X509v3 extensions:
            X509v3 Basic Constraints: 
                CA:FALSE
            X509v3 Subject Key Identifier: 
                95:D5:14:2F:5E:30:82:C8:82:D3:4B:40:1B:00:78:3C:5B:15:31:38
            X509v3 Authority Key Identifier: 
                keyid:D8:72:77:B8:E6:BF:5D:04:E3:2A:09:44:E4:0C:E1:9A:49:25:0E:B6
                DirName:/CN=vpnserver
                serial:2F:BB:33:A9:B8:A8:5B:79:05:CB:10:F7:88:56:49:44:9D:9D:83:01

            X509v3 Extended Key Usage: 
                TLS Web Client Authentication
            X509v3 Key Usage: 
                Digital Signature
    Signature Algorithm: sha256WithRSAEncryption
         2c:67:89:34:de:3f:ff:27:84:60:82:14:62:e4:c1:25:84:25:
         f0:7f:07:f5:e9:d3:a7:6f:6a:84:e1:67:e9:80:6d:a5:c7:fa:
         4a:97:58:dc:d2:4d:4a:5c:35:50:66:63:80:ce:29:4e:43:be:
         9a:86:11:5b:b4:6d:01:4d:18:87:93:3a:32:6c:90:a6:33:31:
         23:9a:14:33:4c:b7:d8:c3:78:ed:e5:33:12:90:57:73:e5:4a:
         66:af:d2:cf:71:e7:98:3f:7c:f7:ae:4a:e4:ef:e9:2b:97:c7:
         58:a5:85:8f:7e:9f:48:f1:81:72:32:4f:bd:43:79:22:ae:d2:
         60:f3:6f:8f:8c:39:a9:87:d2:7e:b1:19:26:1e:46:9c:3b:04:
         00:1c:fe:b1:1c:19:97:65:09:33:6e:e3:a6:8a:b9:19:4a:31:
         e9:4b:d2:3d:0d:60:35:5c:2b:1e:99:84:d2:7c:aa:e7:cc:0d:
         16:0b:19:54:3b:5c:8b:15:90:0b:57:d9:ef:d0:63:e9:5c:14:
         83:43:55:97:9e:d1:9c:ef:9d:58:b6:4a:e7:14:48:9e:f7:56:
         96:f6:cf:b3:c0:ae:d8:09:bc:c7:40:59:ba:6e:c6:c4:ab:46:
         0f:91:7f:0d:a5:00:0e:cb:78:74:70:ce:dd:3f:fa:9c:36:2e:
         a1:73:3f:86
-----BEGIN CERTIFICATE-----
MIIDUzCCAjugAwIBAgIQLUbqUDl3KOieOvfm0finQTANBgkqhkiG9w0BAQsFADAU
MRIwEAYDVQQDDAl2cG5zZXJ2ZXIwHhcNMjMwNTEyMTc0OTA3WhcNMjYwNDI2MTc0
OTA3WjAUMRIwEAYDVQQDDAl2cG5jbGllbnQwggEiMA0GCSqGSIb3DQEBAQUAA4IB
DwAwggEKAoIBAQDCan4nNObBbHODTeI+5kkcl24QOntQET5DFmVSqjNkFIef3dXT
88yrSA58KW2lp/qlj2zGM1ZBfxzGgOLd30SACyuBTAWZedC9oDALN1xkiD/qdOab
UpMMr/RZyuxg4tp7aGJhqaK7ojlv1x1wm4NDVG2VTpsyyTippiAGnLFFtPq0rnou
FBVavDK61h/CHlwVxWd9HRt8IG1UnJVa8rLyF8R+iuxTM4WVziCaWxAnmDsCucy1
WK5yYpzVNKLoR8cNkq0kKByHQhdzXnEso6TteJLEz413yEHiMT752MuZ/POoUtpR
4brHWcrgpogBViFxYdciO6V0O0sqij5ZxMtfAgMBAAGjgaAwgZ0wCQYDVR0TBAIw
ADAdBgNVHQ4EFgQUldUUL14wgsiC00tAGwB4PFsVMTgwTwYDVR0jBEgwRoAU2HJ3
uOa/XQTjKglE5AzhmkklDrahGKQWMBQxEjAQBgNVBAMMCXZwbnNlcnZlcoIUL7sz
qbioW3kFyxD3iFZJRJ2dgwEwEwYDVR0lBAwwCgYIKwYBBQUHAwIwCwYDVR0PBAQD
AgeAMA0GCSqGSIb3DQEBCwUAA4IBAQAsZ4k03j//J4RgghRi5MElhCXwfwf16dOn
b2qE4WfpgG2lx/pKl1jc0k1KXDVQZmOAzilOQ76ahhFbtG0BTRiHkzoybJCmMzEj
mhQzTLfYw3jt5TMSkFdz5Upmr9LPceeYP3z3rkrk7+krl8dYpYWPfp9I8YFyMk+9
Q3kirtJg82+PjDmph9J+sRkmHkacOwQAHP6xHBmXZQkzbuOmirkZSjHpS9I9DWA1
XCsemYTSfKrnzA0WCxlUO1yLFZALV9nv0GPpXBSDQ1WXntGc751YtkrnFEie91aW
9s+zwK7YCbzHQFm6bsbEq0YPkX8NpQAOy3h0cM7dP/qcNi6hcz+G
-----END CERTIFICATE-----
